target datalayout = "e-m:e-p270:32:32-p271:32:32-p272:64:64-i64:64-i128:128-f80:128-n8:16:32:64-S128"
target triple = "x86_64-pc-linux-gnu"

%"class.g2o::OptimizationAlgorithmLevenberg" = type { %"class.g2o::OptimizationAlgorithmWithHessian", ptr, ptr, double, double, double, double, double, i32, %"class.std::unique_ptr" }
%"class.g2o::OptimizationAlgorithmWithHessian" = type { %"class.g2o::OptimizationAlgorithm", ptr, ptr }
%"class.g2o::OptimizationAlgorithm" = type { ptr, ptr, %"class.g2o::PropertyMap" }
%"class.g2o::PropertyMap" = type { %"class.std::map" }
%"class.std::map" = type { %"class.std::_Rb_tree" }
%"class.std::_Rb_tree" = type { %"struct.std::_Rb_tree<std::__cxx11::basic_string<char>, std::pair<const std::__cxx11::basic_string<char>, g2o::BaseProperty *>, std::_Select1st<std::pair<const std::__cxx11::basic_string<char>, g2o::BaseProperty *>>, std::less<std::__cxx11::basic_string<char>>>::_Rb_tree_impl" }
%"struct.std::_Rb_tree<std::__cxx11::basic_string<char>, std::pair<const std::__cxx11::basic_string<char>, g2o::BaseProperty *>, std::_Select1st<std::pair<const std::__cxx11::basic_string<char>, g2o::BaseProperty *>>, std::less<std::__cxx11::basic_string<char>>>::_Rb_tree_impl" = type { [8 x i8], %"struct.std::_Rb_tree_header" }
%"struct.std::_Rb_tree_header" = type { %"struct.std::_Rb_tree_node_base", i64 }
%"struct.std::_Rb_tree_node_base" = type { i32, ptr, ptr, ptr }
%"class.std::unique_ptr" = type { %"struct.std::__uniq_ptr_data" }
%"struct.std::__uniq_ptr_data" = type { %"class.std::__uniq_ptr_impl" }
%"class.std::__uniq_ptr_impl" = type { %"class.std::tuple" }
%"class.std::tuple" = type { %"struct.std::_Tuple_impl" }
%"struct.std::_Tuple_impl" = type { %"struct.std::_Head_base.2" }
%"struct.std::_Head_base.2" = type { ptr }
%"struct.std::_Resetiosflags" = type { i32 }
%"class.std::ios_base" = type { ptr, i64, i64, i32, i32, i32, ptr, %"struct.std::ios_base::_Words", [8 x %"struct.std::ios_base::_Words"], i32, ptr, %"class.std::locale" }
%"struct.std::ios_base::_Words" = type { ptr, i64 }
%"class.std::locale" = type { ptr }

@.str.5 = private unnamed_addr constant [10 x i8] c"\09 schur= \00", align 1
@.str.6 = private unnamed_addr constant [11 x i8] c"\09 lambda= \00", align 1
@.str.7 = private unnamed_addr constant [18 x i8] c"\09 levenbergIter= \00", align 1

; Function Attrs: inlinehint mustprogress nounwind uwtable
define linkonce_odr noundef i32 @_ZStorSt13_Ios_FmtflagsS_(i32 noundef %0, i32 noundef %1) #8 comdat {
  %3 = alloca i32, align 4
  %4 = alloca i32, align 4
  store i32 %0, ptr %3, align 4, !tbaa !185
  store i32 %1, ptr %4, align 4, !tbaa !185
  %5 = load i32, ptr %3, align 4, !tbaa !185
  %6 = load i32, ptr %4, align 4, !tbaa !185
  %7 = or i32 %5, %6
  ret i32 %7
}

; Function Attrs: inlinehint mustprogress uwtable
define linkonce_odr noundef nonnull align 4 dereferenceable(4) ptr @_ZStoRRSt13_Ios_FmtflagsS_(ptr noundef nonnull align 4 dereferenceable(4) %0, i32 noundef %1) #10 comdat {
  %3 = alloca ptr, align 8
  %4 = alloca i32, align 4
  store ptr %0, ptr %3, align 8, !tbaa !182
  store i32 %1, ptr %4, align 4, !tbaa !185
  %5 = load ptr, ptr %3, align 8, !tbaa !182
  %6 = load i32, ptr %5, align 4, !tbaa !185
  %7 = load i32, ptr %4, align 4, !tbaa !185
  %8 = call noundef i32 @_ZStorSt13_Ios_FmtflagsS_(i32 noundef %6, i32 noundef %7)
  %9 = load ptr, ptr %3, align 8, !tbaa !182
  store i32 %8, ptr %9, align 4, !tbaa !185
  ret ptr %9
}

; Function Attrs: inlinehint mustprogress nounwind uwtable
define linkonce_odr noundef i32 @_ZStanSt13_Ios_FmtflagsS_(i32 noundef %0, i32 noundef %1) #8 comdat {
  %3 = alloca i32, align 4
  %4 = alloca i32, align 4
  store i32 %0, ptr %3, align 4, !tbaa !185
  store i32 %1, ptr %4, align 4, !tbaa !185
  %5 = load i32, ptr %3, align 4, !tbaa !185
  %6 = load i32, ptr %4, align 4, !tbaa !185
  %7 = and i32 %5, %6
  ret i32 %7
}

; Function Attrs: inlinehint mustprogress uwtable
define linkonce_odr noundef nonnull align 4 dereferenceable(4) ptr @_ZStaNRSt13_Ios_FmtflagsS_(ptr noundef nonnull align 4 dereferenceable(4) %0, i32 noundef %1) #10 comdat {
  %3 = alloca ptr, align 8
  %4 = alloca i32, align 4
  store ptr %0, ptr %3, align 8, !tbaa !182
  store i32 %1, ptr %4, align 4, !tbaa !185
  %5 = load ptr, ptr %3, align 8, !tbaa !182
  %6 = load i32, ptr %5, align 4, !tbaa !185
  %7 = load i32, ptr %4, align 4, !tbaa !185
  %8 = call noundef i32 @_ZStanSt13_Ios_FmtflagsS_(i32 noundef %6, i32 noundef %7)
  %9 = load ptr, ptr %3, align 8, !tbaa !182
  store i32 %8, ptr %9, align 4, !tbaa !185
  ret ptr %9
}

; Function Attrs: inlinehint mustprogress nounwind uwtable
define linkonce_odr noundef i32 @_ZStcoSt13_Ios_Fmtflags(i32 noundef %0) #8 comdat {
  %2 = alloca i32, align 4
  store i32 %0, ptr %2, align 4, !tbaa !185
  %3 = load i32, ptr %2, align 4, !tbaa !185
  %4 = xor i32 %3, -1
  ret i32 %4
}

; Function Attrs: inlinehint mustprogress nounwind uwtable
define linkonce_odr noundef i32 @_ZStorSt12_Ios_IostateS_(i32 noundef %0, i32 noundef %1) #8 comdat {
  %3 = alloca i32, align 4
  %4 = alloca i32, align 4
  store i32 %0, ptr %3, align 4, !tbaa !305
  store i32 %1, ptr %4, align 4, !tbaa !305
  %5 = load i32, ptr %3, align 4, !tbaa !305
  %6 = load i32, ptr %4, align 4, !tbaa !305
  %7 = or i32 %5, %6
  ret i32 %7
}

; Function Attrs: mustprogress nounwind uwtable
define available_externally noundef i32 @_ZNKSt9basic_iosIcSt11char_traitsIcEE7rdstateEv(ptr noundef nonnull align 8 dereferenceable(264) %0) #1 align 2 {
  %2 = alloca ptr, align 8
  store ptr %0, ptr %2, align 8, !tbaa !261
  %3 = load ptr, ptr %2, align 8
  %4 = getelementptr inbounds nuw %"class.std::ios_base", ptr %3, i32 0, i32 5
  %5 = load i32, ptr %4, align 8, !tbaa !306
  ret i32 %5
}

; Function Attrs: mustprogress uwtable
define linkonce_odr noundef i32 @_ZNSt8ios_base4setfESt13_Ios_FmtflagsS0_(ptr noundef nonnull align 8 dereferenceable(216) %0, i32 noundef %1, i32 noundef %2) #3 comdat align 2 {
  %4 = alloca ptr, align 8
  %5 = alloca i32, align 4
  %6 = alloca i32, align 4
  %7 = alloca i32, align 4
  store ptr %0, ptr %4, align 8, !tbaa !183
  store i32 %1, ptr %5, align 4, !tbaa !185
  store i32 %2, ptr %6, align 4, !tbaa !185
  %8 = load ptr, ptr %4, align 8
  call void @llvm.lifetime.start.p0(i64 4, ptr %7) #6
  %9 = getelementptr inbounds nuw %"class.std::ios_base", ptr %8, i32 0, i32 3
  %10 = load i32, ptr %9, align 8, !tbaa !202
  store i32 %10, ptr %7, align 4, !tbaa !185
  %11 = load i32, ptr %6, align 4, !tbaa !185
  %12 = call noundef i32 @_ZStcoSt13_Ios_Fmtflags(i32 noundef %11)
  %13 = getelementptr inbounds nuw %"class.std::ios_base", ptr %8, i32 0, i32 3
  %14 = call noundef nonnull align 4 dereferenceable(4) ptr @_ZStaNRSt13_Ios_FmtflagsS_(ptr noundef nonnull align 4 dereferenceable(4) %13, i32 noundef %12)
  %15 = load i32, ptr %5, align 4, !tbaa !185
  %16 = load i32, ptr %6, align 4, !tbaa !185
  %17 = call noundef i32 @_ZStanSt13_Ios_FmtflagsS_(i32 noundef %15, i32 noundef %16)
  %18 = getelementptr inbounds nuw %"class.std::ios_base", ptr %8, i32 0, i32 3
  %19 = call noundef nonnull align 4 dereferenceable(4) ptr @_ZStoRRSt13_Ios_FmtflagsS_(ptr noundef nonnull align 4 dereferenceable(4) %18, i32 noundef %17)
  %20 = load i32, ptr %7, align 4, !tbaa !185
  call void @llvm.lifetime.end.p0(i64 4, ptr %7) #6
  ret i32 %20
}

; Function Attrs: mustprogress nounwind uwtable
define linkonce_odr noundef i64 @_ZNSt11char_traitsIcE6lengthEPKc(ptr noundef %0) #1 comdat align 2 {
  %2 = alloca ptr, align 8
  store ptr %0, ptr %2, align 8, !tbaa !72
  %3 = load ptr, ptr %2, align 8, !tbaa !72
  %4 = call i64 @strlen(ptr noundef %3) #6
  ret i64 %4
}

; Function Attrs: mustprogress uwtable
define available_externally void @_ZNSt9basic_iosIcSt11char_traitsIcEE8setstateESt12_Ios_Iostate(ptr noundef nonnull align 8 dereferenceable(264) %0, i32 noundef %1) #3 align 2 {
  %3 = alloca ptr, align 8
  %4 = alloca i32, align 4
  store ptr %0, ptr %3, align 8, !tbaa !261
  store i32 %1, ptr %4, align 4, !tbaa !305
  %5 = load ptr, ptr %3, align 8
  %6 = call noundef i32 @_ZNKSt9basic_iosIcSt11char_traitsIcEE7rdstateEv(ptr noundef nonnull align 8 dereferenceable(264) %5)
  %7 = load i32, ptr %4, align 4, !tbaa !305
  %8 = call noundef i32 @_ZStorSt12_Ios_IostateS_(i32 noundef %6, i32 noundef %7)
  call void @_ZNSt9basic_iosIcSt11char_traitsIcEE5clearESt12_Ios_Iostate(ptr noundef nonnull align 8 dereferenceable(264) %5, i32 noundef %8)
  ret void
}

; Function Attrs: inlinehint mustprogress uwtable
define available_externally noundef nonnull align 8 dereferenceable(8) ptr @_ZStlsIcSt11char_traitsIcEERSt13basic_ostreamIT_T0_ES6_St14_Resetiosflags(ptr noundef nonnull align 8 dereferenceable(8) %0, i32 %1) #10 {
  %3 = alloca %"struct.std::_Resetiosflags", align 4
  %4 = alloca ptr, align 8
  %5 = getelementptr inbounds nuw %"struct.std::_Resetiosflags", ptr %3, i32 0, i32 0
  store i32 %1, ptr %5, align 4
  store ptr %0, ptr %4, align 8, !tbaa !177
  %6 = load ptr, ptr %4, align 8, !tbaa !177
  %7 = load ptr, ptr %6, align 8, !tbaa !18
  %8 = getelementptr i8, ptr %7, i64 -24
  %9 = load i64, ptr %8, align 8
  %10 = getelementptr inbounds i8, ptr %6, i64 %9
  %11 = getelementptr inbounds nuw %"struct.std::_Resetiosflags", ptr %3, i32 0, i32 0
  %12 = load i32, ptr %11, align 4, !tbaa !179
  %13 = call noundef i32 @_ZNSt8ios_base4setfESt13_Ios_FmtflagsS0_(ptr noundef nonnull align 8 dereferenceable(216) %10, i32 noundef 0, i32 noundef %12)
  %14 = load ptr, ptr %4, align 8, !tbaa !177
  ret ptr %14
}

; Function Attrs: inlinehint mustprogress nounwind uwtable
define linkonce_odr i32 @_ZSt13resetiosflagsSt13_Ios_Fmtflags(i32 noundef %0) #8 comdat {
  %2 = alloca %"struct.std::_Resetiosflags", align 4
  %3 = alloca i32, align 4
  store i32 %0, ptr %3, align 4, !tbaa !185
  %4 = getelementptr inbounds nuw %"struct.std::_Resetiosflags", ptr %2, i32 0, i32 0
  %5 = load i32, ptr %3, align 4, !tbaa !185
  store i32 %5, ptr %4, align 4, !tbaa !179
  %6 = getelementptr inbounds nuw %"struct.std::_Resetiosflags", ptr %2, i32 0, i32 0
  %7 = load i32, ptr %6, align 4
  ret i32 %7
}

; Function Attrs: mustprogress uwtable
define available_externally noundef nonnull align 8 dereferenceable(8) ptr @_ZNSolsEd(ptr noundef nonnull align 8 dereferenceable(8) %0, double noundef %1) #3 align 2 {
  %3 = alloca ptr, align 8
  %4 = alloca double, align 8
  store ptr %0, ptr %3, align 8, !tbaa !177
  store double %1, ptr %4, align 8, !tbaa !53
  %5 = load ptr, ptr %3, align 8
  %6 = load double, ptr %4, align 8, !tbaa !53
  %7 = call noundef nonnull align 8 dereferenceable(8) ptr @_ZNSo9_M_insertIdEERSoT_(ptr noundef nonnull align 8 dereferenceable(8) %5, double noundef %6)
  ret ptr %7
}

; Function Attrs: mustprogress uwtable
define available_externally noundef nonnull align 8 dereferenceable(8) ptr @_ZNSolsEPFRSt8ios_baseS0_E(ptr noundef nonnull align 8 dereferenceable(8) %0, ptr noundef %1) #3 align 2 {
  %3 = alloca ptr, align 8
  %4 = alloca ptr, align 8
  store ptr %0, ptr %3, align 8, !tbaa !177
  store ptr %1, ptr %4, align 8, !tbaa !182
  %5 = load ptr, ptr %3, align 8
  %6 = load ptr, ptr %4, align 8, !tbaa !182
  %7 = load ptr, ptr %5, align 8, !tbaa !18
  %8 = getelementptr i8, ptr %7, i64 -24
  %9 = load i64, ptr %8, align 8
  %10 = getelementptr inbounds i8, ptr %5, i64 %9
  %11 = call noundef nonnull align 8 dereferenceable(216) ptr %6(ptr noundef nonnull align 8 dereferenceable(216) %10)
  ret ptr %5
}

; Function Attrs: mustprogress uwtable
define available_externally noundef nonnull align 8 dereferenceable(8) ptr @_ZNSolsEb(ptr noundef nonnull align 8 dereferenceable(8) %0, i1 noundef zeroext %1) #3 align 2 {
  %3 = alloca ptr, align 8
  %4 = alloca i8, align 1
  store ptr %0, ptr %3, align 8, !tbaa !177
  %5 = zext i1 %1 to i8
  store i8 %5, ptr %4, align 1, !tbaa !79
  %6 = load ptr, ptr %3, align 8
  %7 = load i8, ptr %4, align 1, !tbaa !79, !range !81, !noundef !82
  %8 = trunc i8 %7 to i1
  %9 = call noundef nonnull align 8 dereferenceable(8) ptr @_ZNSo9_M_insertIbEERSoT_(ptr noundef nonnull align 8 dereferenceable(8) %6, i1 noundef zeroext %8)
  ret ptr %9
}

; Function Attrs: inlinehint mustprogress uwtable
define available_externally noundef nonnull align 8 dereferenceable(8) ptr @_ZStlsISt11char_traitsIcEERSt13basic_ostreamIcT_ES5_PKc(ptr noundef nonnull align 8 dereferenceable(8) %0, ptr noundef %1) #10 {
  %3 = alloca ptr, align 8
  %4 = alloca ptr, align 8
  store ptr %0, ptr %3, align 8, !tbaa !177
  store ptr %1, ptr %4, align 8, !tbaa !72
  %5 = load ptr, ptr %4, align 8, !tbaa !72
  %6 = icmp ne ptr %5, null
  br i1 %6, label %13, label %7

7:                                                ; preds = %2
  %8 = load ptr, ptr %3, align 8, !tbaa !177
  %9 = load ptr, ptr %8, align 8, !tbaa !18
  %10 = getelementptr i8, ptr %9, i64 -24
  %11 = load i64, ptr %10, align 8
  %12 = getelementptr inbounds i8, ptr %8, i64 %11
  call void @_ZNSt9basic_iosIcSt11char_traitsIcEE8setstateESt12_Ios_Iostate(ptr noundef nonnull align 8 dereferenceable(264) %12, i32 noundef 1)
  br label %19

13:                                               ; preds = %2
  %14 = load ptr, ptr %3, align 8, !tbaa !177
  %15 = load ptr, ptr %4, align 8, !tbaa !72
  %16 = load ptr, ptr %4, align 8, !tbaa !72
  %17 = call noundef i64 @_ZNSt11char_traitsIcE6lengthEPKc(ptr noundef %16)
  %18 = call noundef nonnull align 8 dereferenceable(8) ptr @_ZSt16__ostream_insertIcSt11char_traitsIcEERSt13basic_ostreamIT_T0_ES6_PKS3_l(ptr noundef nonnull align 8 dereferenceable(8) %14, ptr noundef %15, i64 noundef %17)
  br label %19

19:                                               ; preds = %13, %7
  %20 = load ptr, ptr %3, align 8, !tbaa !177
  ret ptr %20
}

; Function Attrs: mustprogress uwtable
define void @_ZNK3g2o30OptimizationAlgorithmLevenberg12printVerboseERSo(ptr noundef nonnull align 8 dereferenceable(152) %0, ptr noundef nonnull align 8 dereferenceable(8) %1) unnamed_addr #3 align 2 {
  %3 = alloca ptr, align 8
  %4 = alloca ptr, align 8
  %5 = alloca %"struct.std::_Resetiosflags", align 4
  store ptr %0, ptr %3, align 8, !tbaa !14
  store ptr %1, ptr %4, align 8, !tbaa !177
  %6 = load ptr, ptr %3, align 8
  %7 = load ptr, ptr %4, align 8, !tbaa !177
  %8 = call noundef nonnull align 8 dereferenceable(8) ptr @_ZStlsISt11char_traitsIcEERSt13basic_ostreamIcT_ES5_PKc(ptr noundef nonnull align 8 dereferenceable(8) %7, ptr noundef @.str.5)
  %9 = getelementptr inbounds nuw %"class.g2o::OptimizationAlgorithmWithHessian", ptr %6, i32 0, i32 1
  %10 = load ptr, ptr %9, align 8, !tbaa !83
  %11 = load ptr, ptr %10, align 8, !tbaa !18
  %12 = getelementptr inbounds ptr, ptr %11, i64 11
  %13 = load ptr, ptr %12, align 8
  %14 = call noundef zeroext i1 %13(ptr noundef nonnull align 8 dereferenceable(64) %10)
  %15 = call noundef nonnull align 8 dereferenceable(8) ptr @_ZNSolsEb(ptr noundef nonnull align 8 dereferenceable(8) %8, i1 noundef zeroext %14)
  %16 = call noundef nonnull align 8 dereferenceable(8) ptr @_ZStlsISt11char_traitsIcEERSt13basic_ostreamIcT_ES5_PKc(ptr noundef nonnull align 8 dereferenceable(8) %15, ptr noundef @.str.6)
  %17 = call noundef nonnull align 8 dereferenceable(8) ptr @_ZNSolsEPFRSt8ios_baseS0_E(ptr noundef nonnull align 8 dereferenceable(8) %16, ptr noundef @_ZSt5fixedRSt8ios_base)
  %18 = getelementptr inbounds nuw %"class.g2o::OptimizationAlgorithmLevenberg", ptr %6, i32 0, i32 3
  %19 = load double, ptr %18, align 8, !tbaa !20
  %20 = call noundef nonnull align 8 dereferenceable(8) ptr @_ZNSolsEd(ptr noundef nonnull align 8 dereferenceable(8) %17, double noundef %19)
  %21 = call i32 @_ZSt13resetiosflagsSt13_Ios_Fmtflags(i32 noundef 4)
  %22 = getelementptr inbounds nuw %"struct.std::_Resetiosflags", ptr %5, i32 0, i32 0
  store i32 %21, ptr %22, align 4
  %23 = getelementptr inbounds nuw %"struct.std::_Resetiosflags", ptr %5, i32 0, i32 0
  %24 = load i32, ptr %23, align 4
  %25 = call noundef nonnull align 8 dereferenceable(8) ptr @_ZStlsIcSt11char_traitsIcEERSt13basic_ostreamIT_T0_ES6_St14_Resetiosflags(ptr noundef nonnull align 8 dereferenceable(8) %20, i32 %24)
  %26 = call noundef nonnull align 8 dereferenceable(8) ptr @_ZStlsISt11char_traitsIcEERSt13basic_ostreamIcT_ES5_PKc(ptr noundef nonnull align 8 dereferenceable(8) %25, ptr noundef @.str.7)
  %27 = getelementptr inbounds nuw %"class.g2o::OptimizationAlgorithmLevenberg", ptr %6, i32 0, i32 8
  %28 = load i32, ptr %27, align 8, !tbaa !52
  %29 = call noundef nonnull align 8 dereferenceable(8) ptr @_ZNSolsEi(ptr noundef nonnull align 8 dereferenceable(8) %26, i32 noundef %28)
  ret void
}