; Function Attrs: mustprogress uwtable
define void @_ZNK3g2o30OptimizationAlgorithmLevenberg12printVerboseERSo(ptr noundef nonnull readonly align 8 captures(none) dereferenceable(152) %0, ptr noundef nonnull align 8 dereferenceable(8) %1) unnamed_addr #4 align 2 {
  %3 = tail call noundef nonnull align 8 dereferenceable(8) ptr @_ZSt16__ostream_insertIcSt11char_traitsIcEERSt13basic_ostreamIT_T0_ES6_PKS3_l(ptr noundef nonnull align 8 dereferenceable(8) %1, ptr noundef nonnull @.str.5, i64 noundef 9)
  %4 = getelementptr inbounds nuw i8, ptr %0, i64 64
  %5 = load ptr, ptr %4, align 8, !tbaa !66
  %6 = load ptr, ptr %5, align 8, !tbaa !8
  %7 = getelementptr inbounds nuw i8, ptr %6, i64 88
  %8 = load ptr, ptr %7, align 8
  %9 = tail call noundef zeroext i1 %8(ptr noundef nonnull align 8 dereferenceable(64) %5)
  %10 = tail call noundef nonnull align 8 dereferenceable(8) ptr @_ZNSo9_M_insertIbEERSoT_(ptr noundef nonnull align 8 dereferenceable(8) %1, i1 noundef zeroext %9)
  %11 = tail call noundef nonnull align 8 dereferenceable(8) ptr @_ZSt16__ostream_insertIcSt11char_traitsIcEERSt13basic_ostreamIT_T0_ES6_PKS3_l(ptr noundef nonnull align 8 dereferenceable(8) %10, ptr noundef nonnull @.str.6, i64 noundef 10)
  %12 = load ptr, ptr %10, align 8, !tbaa !8
  %13 = getelementptr i8, ptr %12, i64 -24
  %14 = load i64, ptr %13, align 8
  %15 = getelementptr inbounds i8, ptr %10, i64 %14
  %16 = getelementptr inbounds nuw i8, ptr %15, i64 24
  %17 = load i32, ptr %16, align 8, !tbaa !155
  %18 = and i32 %17, -261
  %19 = or disjoint i32 %18, 4
  store i32 %19, ptr %16, align 4, !tbaa !164
  %20 = getelementptr inbounds nuw i8, ptr %0, i64 96
  %21 = load double, ptr %20, align 8, !tbaa !10
  %22 = tail call noundef nonnull align 8 dereferenceable(8) ptr @_ZNSo9_M_insertIdEERSoT_(ptr noundef nonnull align 8 dereferenceable(8) %10, double noundef %21)
  %23 = load ptr, ptr %22, align 8, !tbaa !8
  %24 = getelementptr i8, ptr %23, i64 -24
  %25 = load i64, ptr %24, align 8
  %26 = getelementptr inbounds i8, ptr %22, i64 %25
  %27 = getelementptr inbounds nuw i8, ptr %26, i64 24
  %28 = load i32, ptr %27, align 8, !tbaa !155
  %29 = and i32 %28, -5
  store i32 %29, ptr %27, align 4, !tbaa !164
  %30 = tail call noundef nonnull align 8 dereferenceable(8) ptr @_ZSt16__ostream_insertIcSt11char_traitsIcEERSt13basic_ostreamIT_T0_ES6_PKS3_l(ptr noundef nonnull align 8 dereferenceable(8) %22, ptr noundef nonnull @.str.7, i64 noundef 17)
  %31 = getelementptr inbounds nuw i8, ptr %0, i64 136
  %32 = load i32, ptr %31, align 8, !tbaa !41
  %33 = tail call noundef nonnull align 8 dereferenceable(8) ptr @_ZNSolsEi(ptr noundef nonnull align 8 dereferenceable(8) %22, i32 noundef %32)
  ret void
}